target datalayout = "e-m:e-p270:32:32-p271:32:32-p272:64:64-i64:64-i128:128-f80:128-n8:16:32:64-S128"
target triple = "x86_64-pc-linux-gnu"

%class.PacketListRecord = type <{ ptr, ptr, i32, i8, [3 x i8], i32, i8, [3 x i8], i32, i8, [3 x i8] }>

@_ZTV16PacketListRecord = unnamed_addr constant { [4 x ptr] } { [4 x ptr] [ptr null, ptr @_ZTI16PacketListRecord, ptr @_ZN16PacketListRecordD1Ev, ptr @_ZN16PacketListRecordD0Ev] }, align 8

; Function Attrs: mustprogress nounwind uwtable
define void @_ZN16PacketListRecordC2EP11_frame_data(ptr noundef nonnull align 8 dereferenceable(37) %0, ptr noundef %1) unnamed_addr #1 align 2 {
  %3 = alloca ptr, align 8
  %4 = alloca ptr, align 8
  store ptr %0, ptr %3, align 8
  store ptr %1, ptr %4, align 8
  %5 = load ptr, ptr %3, align 8
  store ptr getelementptr inbounds ({ [4 x ptr] }, ptr @_ZTV16PacketListRecord, i32 0, i32 0, i32 2), ptr %5, align 8
  %6 = getelementptr inbounds %class.PacketListRecord, ptr %5, i32 0, i32 1
  %7 = load ptr, ptr %4, align 8
  store ptr %7, ptr %6, align 8
  %8 = getelementptr inbounds %class.PacketListRecord, ptr %5, i32 0, i32 2
  store i32 1, ptr %8, align 8
  %9 = getelementptr inbounds %class.PacketListRecord, ptr %5, i32 0, i32 3
  store i8 0, ptr %9, align 4
  %10 = getelementptr inbounds %class.PacketListRecord, ptr %5, i32 0, i32 5
  store i32 0, ptr %10, align 8
  %11 = getelementptr inbounds %class.PacketListRecord, ptr %5, i32 0, i32 6
  store i8 0, ptr %11, align 4
  %12 = getelementptr inbounds %class.PacketListRecord, ptr %5, i32 0, i32 8
  store i32 0, ptr %12, align 8
  %13 = getelementptr inbounds %class.PacketListRecord, ptr %5, i32 0, i32 9
  store i8 0, ptr %13, align 4
  ret void
}