; Function Attrs: mustprogress nofree norecurse nosync nounwind willreturn memory(argmem: write) uwtable
define void @_ZN16PacketListRecordC2EP11_frame_data(ptr nocapture noundef nonnull writeonly align 8 dereferenceable(37) %0, ptr noundef %1) unnamed_addr #2 align 2 {
  store ptr getelementptr inbounds ({ [4 x ptr] }, ptr @_ZTV16PacketListRecord, i64 0, i32 0, i64 2), ptr %0, align 8
  %3 = getelementptr inbounds i8, ptr %0, i64 8
  store ptr %1, ptr %3, align 8
  %4 = getelementptr inbounds i8, ptr %0, i64 16
  store i32 1, ptr %4, align 8
  %5 = getelementptr inbounds i8, ptr %0, i64 20
  store i8 0, ptr %5, align 4
  %6 = getelementptr inbounds i8, ptr %0, i64 24
  store i32 0, ptr %6, align 8
  %7 = getelementptr inbounds i8, ptr %0, i64 28
  store i8 0, ptr %7, align 4
  %8 = getelementptr inbounds i8, ptr %0, i64 32
  store i32 0, ptr %8, align 8
  %9 = getelementptr inbounds i8, ptr %0, i64 36
  store i8 0, ptr %9, align 4
  ret void
}